target datalayout = "e-m:e-p270:32:32-p271:32:32-p272:64:64-i64:64-i128:128-f80:128-n8:16:32:64-S128"
target triple = "x86_64-pc-linux-gnu"

; Function Attrs: mustprogress nounwind uwtable
define i32 @u_strlen_77(ptr noundef %0) #3 {
  %2 = alloca ptr, align 8
  %3 = alloca ptr, align 8
  store ptr %0, ptr %2, align 8, !tbaa !3
  call void @llvm.lifetime.start.p0(i64 8, ptr %3) #7
  %4 = load ptr, ptr %2, align 8, !tbaa !3
  store ptr %4, ptr %3, align 8, !tbaa !3
  br label %5

5:                                                ; preds = %10, %1
  %6 = load ptr, ptr %3, align 8, !tbaa !3
  %7 = load i16, ptr %6, align 2, !tbaa !10
  %8 = zext i16 %7 to i32
  %9 = icmp ne i32 %8, 0
  br i1 %9, label %10, label %13

10:                                               ; preds = %5
  %11 = load ptr, ptr %3, align 8, !tbaa !3
  %12 = getelementptr inbounds nuw i16, ptr %11, i32 1
  store ptr %12, ptr %3, align 8, !tbaa !3
  br label %5, !llvm.loop !20

13:                                               ; preds = %5
  %14 = load ptr, ptr %3, align 8, !tbaa !3
  %15 = load ptr, ptr %2, align 8, !tbaa !3
  %16 = ptrtoint ptr %14 to i64
  %17 = ptrtoint ptr %15 to i64
  %18 = sub i64 %16, %17
  %19 = sdiv exact i64 %18, 2
  %20 = trunc i64 %19 to i32
  call void @llvm.lifetime.end.p0(i64 8, ptr %3) #7
  ret i32 %20
}