; Function Attrs: mustprogress nofree norecurse nosync nounwind willreturn memory(argmem: read) uwtable
define i32 @u_strlen_77(ptr noundef %0) local_unnamed_addr #2 {
  br label %2

2:                                                ; preds = %2, %1
  %.0 = phi ptr [ %0, %1 ], [ %4, %2 ]
  %3 = load i16, ptr %.0, align 2, !tbaa !3
  %.not = icmp eq i16 %3, 0
  %4 = getelementptr inbounds nuw i8, ptr %.0, i64 2
  br i1 %.not, label %5, label %2, !llvm.loop !11

5:                                                ; preds = %2
  %6 = ptrtoint ptr %.0 to i64
  %7 = ptrtoint ptr %0 to i64
  %8 = sub i64 %6, %7
  %9 = lshr exact i64 %8, 1
  %10 = trunc i64 %9 to i32
  ret i32 %10
}